; Function Attrs: mustprogress nofree norecurse nosync nounwind willreturn memory(write, argmem: readwrite, inaccessiblemem: none) uwtable
define void @_ZN2cv3dnn14dnn4_v202412235Model14setInputParamsEdRKNS_5Size_IiEERKNS_7Scalar_IdEEbb(ptr noundef nonnull readonly align 8 captures(none) dereferenceable(16) %0, double noundef %1, ptr noundef nonnull readonly align 4 captures(none) dereferenceable(8) %2, ptr noundef nonnull readonly align 8 captures(none) dereferenceable(32) %3, i1 noundef zeroext %4, i1 noundef zeroext %5) local_unnamed_addr #5 align 2 {
  %7 = load ptr, ptr %0, align 8, !tbaa !51
  %8 = zext i1 %4 to i8
  %9 = zext i1 %5 to i8
  %10 = getelementptr inbounds nuw i8, ptr %7, i64 24
  %11 = load i64, ptr %2, align 4
  store i64 %11, ptr %10, align 8
  %12 = getelementptr inbounds nuw i8, ptr %7, i64 32
  %13 = load double, ptr %3, align 8, !tbaa !17
  store double %13, ptr %12, align 8, !tbaa !17
  %14 = getelementptr inbounds nuw i8, ptr %3, i64 8
  %15 = load double, ptr %14, align 8, !tbaa !17
  %16 = getelementptr inbounds nuw i8, ptr %7, i64 40
  store double %15, ptr %16, align 8, !tbaa !17
  %17 = getelementptr inbounds nuw i8, ptr %3, i64 16
  %18 = load double, ptr %17, align 8, !tbaa !17
  %19 = getelementptr inbounds nuw i8, ptr %7, i64 48
  store double %18, ptr %19, align 8, !tbaa !17
  %20 = getelementptr inbounds nuw i8, ptr %3, i64 24
  %21 = load double, ptr %20, align 8, !tbaa !17
  %22 = getelementptr inbounds nuw i8, ptr %7, i64 56
  store double %21, ptr %22, align 8, !tbaa !17
  %23 = getelementptr inbounds nuw i8, ptr %7, i64 64
  store double %1, ptr %23, align 8, !tbaa !17
  %24 = getelementptr inbounds nuw i8, ptr %7, i64 72
  store double %1, ptr %24, align 8, !tbaa !17
  %25 = getelementptr inbounds nuw i8, ptr %7, i64 80
  store double %1, ptr %25, align 8, !tbaa !17
  %26 = getelementptr inbounds nuw i8, ptr %7, i64 88
  store double %1, ptr %26, align 8, !tbaa !17
  %27 = getelementptr inbounds nuw i8, ptr %7, i64 97
  store i8 %9, ptr %27, align 1, !tbaa !50
  %28 = getelementptr inbounds nuw i8, ptr %7, i64 96
  store i8 %8, ptr %28, align 8, !tbaa !22
  ret void
}